; Function Attrs: mustprogress nounwind uwtable
define dso_local noundef zeroext i1 @_ZNK5clang12FunctionDecl20isInExternCXXContextEv(ptr nocapture noundef nonnull readonly align 8 dereferenceable(168) %0) local_unnamed_addr #2 align 2 {
  %2 = getelementptr inbounds nuw i8, ptr %0, i64 16
  %.0.copyload.i.i.i.i.i.i.i.i.i.i.i = load i64, ptr %2, align 8
  %3 = and i64 %.0.copyload.i.i.i.i.i.i.i.i.i.i.i, 4
  %4 = icmp eq i64 %3, 0
  %5 = and i64 %.0.copyload.i.i.i.i.i.i.i.i.i.i.i, -8
  %6 = inttoptr i64 %5 to ptr
  br i1 %4, label %_ZNK5clang4Decl21getLexicalDeclContextEv.exit, label %7

7:                                                ; preds = %1
  %8 = getelementptr inbounds nuw i8, ptr %6, i64 8
  %9 = load ptr, ptr %8, align 8
  br label %_ZNK5clang4Decl21getLexicalDeclContextEv.exit

_ZNK5clang4Decl21getLexicalDeclContextEv.exit:    ; preds = %1, %7
  %.0.i.i = phi ptr [ %9, %7 ], [ %6, %1 ]
  %10 = tail call noundef zeroext i1 @_ZNK5clang11DeclContext18isExternCXXContextEv(ptr noundef nonnull align 8 dereferenceable(32) %.0.i.i) #27
  ret i1 %10
}